target datalayout = "e-m:e-p270:32:32-p271:32:32-p272:64:64-i64:64-i128:128-f80:128-n8:16:32:64-S128"
target triple = "x86_64-pc-linux-gnu"

%struct.mbedtls_aes_context = type { i32, i64, [68 x i32] }

; Function Attrs: nounwind uwtable
define internal i32 @pem_aes_decrypt(ptr noundef %0, i32 noundef %1, ptr noundef %2, i64 noundef %3, ptr noundef %4, i64 noundef %5) #0 {
  %7 = alloca ptr, align 8
  %8 = alloca i32, align 4
  %9 = alloca ptr, align 8
  %10 = alloca i64, align 8
  %11 = alloca ptr, align 8
  %12 = alloca i64, align 8
  %13 = alloca %struct.mbedtls_aes_context, align 8
  %14 = alloca [32 x i8], align 16
  %15 = alloca i32, align 4
  store ptr %0, ptr %7, align 8, !tbaa !8
  store i32 %1, ptr %8, align 4, !tbaa !14
  store ptr %2, ptr %9, align 8, !tbaa !8
  store i64 %3, ptr %10, align 8, !tbaa !10
  store ptr %4, ptr %11, align 8, !tbaa !8
  store i64 %5, ptr %12, align 8, !tbaa !10
  call void @llvm.lifetime.start.p0(i64 288, ptr %13) #9
  call void @llvm.lifetime.start.p0(i64 32, ptr %14) #9
  call void @llvm.lifetime.start.p0(i64 4, ptr %15) #9
  store i32 -110, ptr %15, align 4, !tbaa !14
  call void @mbedtls_aes_init(ptr noundef %13)
  %16 = getelementptr inbounds [32 x i8], ptr %14, i64 0, i64 0
  %17 = load i32, ptr %8, align 4, !tbaa !14
  %18 = zext i32 %17 to i64
  %19 = load ptr, ptr %7, align 8, !tbaa !8
  %20 = load ptr, ptr %11, align 8, !tbaa !8
  %21 = load i64, ptr %12, align 8, !tbaa !10
  %22 = call i32 @pem_pbkdf1(ptr noundef %16, i64 noundef %18, ptr noundef %19, ptr noundef %20, i64 noundef %21)
  store i32 %22, ptr %15, align 4, !tbaa !14
  %23 = icmp ne i32 %22, 0
  br i1 %23, label %24, label %25

24:                                               ; preds = %6
  br label %38

25:                                               ; preds = %6
  %26 = getelementptr inbounds [32 x i8], ptr %14, i64 0, i64 0
  %27 = load i32, ptr %8, align 4, !tbaa !14
  %28 = mul i32 %27, 8
  %29 = call i32 @mbedtls_aes_setkey_dec(ptr noundef %13, ptr noundef %26, i32 noundef %28)
  store i32 %29, ptr %15, align 4, !tbaa !14
  %30 = icmp ne i32 %29, 0
  br i1 %30, label %31, label %32

31:                                               ; preds = %25
  br label %38

32:                                               ; preds = %25
  %33 = load i64, ptr %10, align 8, !tbaa !10
  %34 = load ptr, ptr %7, align 8, !tbaa !8
  %35 = load ptr, ptr %9, align 8, !tbaa !8
  %36 = load ptr, ptr %9, align 8, !tbaa !8
  %37 = call i32 @mbedtls_aes_crypt_cbc(ptr noundef %13, i32 noundef 0, i64 noundef %33, ptr noundef %34, ptr noundef %35, ptr noundef %36)
  store i32 %37, ptr %15, align 4, !tbaa !14
  br label %38

38:                                               ; preds = %32, %31, %24
  call void @mbedtls_aes_free(ptr noundef %13)
  %39 = getelementptr inbounds [32 x i8], ptr %14, i64 0, i64 0
  %40 = load i32, ptr %8, align 4, !tbaa !14
  %41 = zext i32 %40 to i64
  call void @mbedtls_platform_zeroize(ptr noundef %39, i64 noundef %41)
  %42 = load i32, ptr %15, align 4, !tbaa !14
  call void @llvm.lifetime.end.p0(i64 4, ptr %15) #9
  call void @llvm.lifetime.end.p0(i64 32, ptr %14) #9
  call void @llvm.lifetime.end.p0(i64 288, ptr %13) #9
  ret i32 %42
}