; Function Attrs: nounwind uwtable
define internal fastcc i32 @pem_aes_decrypt(ptr noundef nonnull %0, i32 noundef range(i32 16, 33) %1, ptr noundef nonnull %2, i64 noundef %3, ptr noundef nonnull %4, i64 noundef %5) unnamed_addr #2 {
  %7 = alloca %struct.mbedtls_aes_context, align 8
  %8 = alloca [32 x i8], align 16
  call void @llvm.lifetime.start.p0(i64 288, ptr nonnull %7) #12
  call void @llvm.lifetime.start.p0(i64 32, ptr nonnull %8) #12
  call void @mbedtls_aes_init(ptr noundef nonnull %7) #12
  %9 = zext nneg i32 %1 to i64
  %10 = call fastcc i32 @pem_pbkdf1(ptr noundef %8, i64 noundef %9, ptr noundef %0, ptr noundef %4, i64 noundef %5)
  %.not = icmp eq i32 %10, 0
  br i1 %.not, label %11, label %16

11:                                               ; preds = %6
  %12 = shl nuw nsw i32 %1, 3
  %13 = call i32 @mbedtls_aes_setkey_dec(ptr noundef nonnull %7, ptr noundef nonnull %8, i32 noundef %12) #12
  %.not12 = icmp eq i32 %13, 0
  br i1 %.not12, label %14, label %16

14:                                               ; preds = %11
  %15 = call i32 @mbedtls_aes_crypt_cbc(ptr noundef nonnull %7, i32 noundef 0, i64 noundef %3, ptr noundef nonnull %0, ptr noundef nonnull %2, ptr noundef nonnull %2) #12
  br label %16

16:                                               ; preds = %11, %6, %14
  %.0 = phi i32 [ %10, %6 ], [ %13, %11 ], [ %15, %14 ]
  call void @mbedtls_aes_free(ptr noundef nonnull %7) #12
  call void @mbedtls_platform_zeroize(ptr noundef nonnull %8, i64 noundef %9) #12
  call void @llvm.lifetime.end.p0(i64 32, ptr nonnull %8) #12
  call void @llvm.lifetime.end.p0(i64 288, ptr nonnull %7) #12
  ret i32 %.0
}